(dp0
S'MaritalStatus'
p1
(dp2
S'Single'
p3
F0.11098848947562599
sS'Married'
p4
F-0.0037588166252432303
sS'Divorced'
p5
F-0.1621288094097362
ssS'OverTime'
p6
(dp7
S'Yes'
p8
F0.2569559283945651
sS'No'
p9
F-0.41224479509354295
ssS'generation'
p10
(dp11
S'gen x'
p12
F0.04229776078770597
sS'the_baby_boomers'
p13
F-0.02136502281992361
sS'gen_y'
p14
F-0.025420429891330417
ssS'Gender'
p15
(dp16
S'Male'
p17
F0.04743312982422289
sS'Female'
p18
F-0.05084473707305433
ssS'EducationField'
p19
(dp20
S'Life Sciences'
p21
F-0.14955515973946526
sS'Marketing'
p22
F0.13509455286565017
sS'Medical'
p23
F0.04879016416943202
sS'Human Resources'
p24
F0.0012371572321641365
sS'Other'
p25
F-0.5095376522551346
sS'Technical Degree'
p26
F-0.08070334720286516
ssS'BusinessTravel'
p27
(dp28
S'Non-Travel'
p29
F-0.06927224776297716
sS'Travel_Frequently'
p30
F0.13925641803315802
sS'Travel_Rarely'
p31
F-0.13353139262452263
ssS'Department'
p32
(dp33
S'Human Resources'
p34
F-0.03463612388148858
sS'Research & Development'
p35
F-0.28611098021973963
sS'Sales'
p36
F0.20775294292003518
ssS'JobRole'
p37
(dp38
S'Healthcare Representative'
p39
F-0.11573500024582552
sS'Laboratory Technician'
p40
F0.08638784352647587
sS'Sales Representative'
p41
F0.04282598806576086
sS'Research Director'
p42
F-0.4076301218041077
sS'Human Resources'
p43
F-0.009347197483716584
sS'Manager'
p44
F0.01183937306116021
sS'Manufacturing Director'
p45
F-0.7643064783827019
sS'Sales Executive'
p46
F0.1682361183106065
sS'Research Scientist'
p47
F-0.117939770221365
ssS'job_title3'
p48
(dp49
S'healthcare representative'
p50
F-0.11573500024582552
sS'laboratory technician'
p51
F0.08638784352647587
sS'sales representative'
p52
F0.04282598806576086
sS'research director'
p53
F-0.4076301218041077
sS'human resources'
p54
F-0.009347197483716584
sS'sales executive'
p55
F0.1682361183106065
sS'manager'
p56
F0.01183937306116021
sS'manufacturing director'
p57
F-0.7643064783827019
sS'research scientist'
p58
F-0.117939770221365
ssS'job_title2'
p59
(dp60
S'sales executive'
p61
F0.1682361183106065
sS'healthcare representative'
p62
F-0.11573500024582552
sS'laboratory technician'
p63
F0.08638784352647587
sS'sales representative'
p64
F0.04282598806576086
sS'human resources'
p65
F-0.009347197483716584
sS'director'
p66
F-1.1719366001868097
sS'manager'
p67
F0.01183937306116021
sS'research scientist'
p68
F-0.117939770221365
ss.